target datalayout = "e-m:e-p270:32:32-p271:32:32-p272:64:64-i64:64-i128:128-f80:128-n8:16:32:64-S128"
target triple = "x86_64-unknown-linux-gnu"

%struct.SCSISense = type { i8, i8, i8 }
%struct.SCSIDiskState = type { %struct.SCSIDevice, i32, i8, i8, i8, i16, i64, i64, i32, ptr, ptr, ptr, ptr, ptr, ptr, i8, i8, i16 }
%struct.SCSIDevice = type { %struct.DeviceState, ptr, ptr, i32, %struct.BlockConf, %struct.SCSISense, i8, [252 x i8], i32, %union.anon, i32, i32, i32, i32, i64, i64, i64, i32, i32, i32, i8, i8 }
%struct.DeviceState = type { %struct.Object, ptr, ptr, i8, i8, i64, ptr, i32, i8, ptr, %struct.NamedGPIOListHead, %struct.NamedClockListHead, %struct.BusStateHead, i32, i32, i32, %struct.ResettableState, ptr, %struct.MemReentrancyGuard }
%struct.Object = type { ptr, ptr, ptr, i32, ptr }
%struct.NamedGPIOListHead = type { ptr }
%struct.NamedClockListHead = type { ptr }
%struct.BusStateHead = type { ptr }
%struct.ResettableState = type { i32, i8, i8 }
%struct.MemReentrancyGuard = type { i8 }
%struct.BlockConf = type { ptr, i32, i32, i32, i32, i32, i32, i32, i32, i32, i32, i32, i32, i32, i32, i8, i32, i32, i32, i32 }
%union.anon = type { %struct.QTailQLink }
%struct.QTailQLink = type { ptr, ptr }

@sense_code_MEDIUM_CHANGED = external constant %struct.SCSISense, align 1

; Function Attrs: nounwind sspstrong uwtable
define internal void @scsi_disk_unit_attention_reported(ptr noundef %dev) #0 {
entry:
  %dev.addr = alloca ptr, align 8
  %s = alloca ptr, align 8
  %tmp = alloca ptr, align 8
  %__mptr = alloca ptr, align 8
  %tmp1 = alloca ptr, align 8
  %sense_code_MEDIUM_CHANGED.coerce = alloca i24, align 4
  store ptr %dev, ptr %dev.addr, align 8
  %0 = load ptr, ptr %dev.addr, align 8
  store ptr %0, ptr %__mptr, align 8
  %1 = load ptr, ptr %__mptr, align 8
  %add.ptr = getelementptr i8, ptr %1, i64 0
  store ptr %add.ptr, ptr %tmp1, align 8
  %2 = load ptr, ptr %tmp1, align 8
  store ptr %2, ptr %tmp, align 8
  %3 = load ptr, ptr %tmp, align 8
  store ptr %3, ptr %s, align 8
  %4 = load ptr, ptr %s, align 8
  %media_changed = getelementptr inbounds %struct.SCSIDiskState, ptr %4, i32 0, i32 2
  %5 = load i8, ptr %media_changed, align 4
  %tobool = trunc i8 %5 to i1
  br i1 %tobool, label %if.then, label %if.end

if.then:                                          ; preds = %entry
  %6 = load ptr, ptr %s, align 8
  %media_changed2 = getelementptr inbounds %struct.SCSIDiskState, ptr %6, i32 0, i32 2
  store i8 0, ptr %media_changed2, align 4
  %7 = load ptr, ptr %s, align 8
  %qdev = getelementptr inbounds %struct.SCSIDiskState, ptr %7, i32 0, i32 0
  call void @llvm.memcpy.p0.p0.i64(ptr align 4 %sense_code_MEDIUM_CHANGED.coerce, ptr align 1 @sense_code_MEDIUM_CHANGED, i64 3, i1 false)
  %8 = load i24, ptr %sense_code_MEDIUM_CHANGED.coerce, align 4
  call void @scsi_device_set_ua(ptr noundef %qdev, i24 %8)
  br label %if.end

if.end:                                           ; preds = %if.then, %entry
  ret void
}