; Function Attrs: nounwind sspstrong uwtable
define internal void @scsi_disk_unit_attention_reported(ptr noundef %dev) #0 {
entry:
  %media_changed = getelementptr inbounds nuw i8, ptr %dev, i64 612
  %0 = load i8, ptr %media_changed, align 4
  %tobool = trunc i8 %0 to i1
  br i1 %tobool, label %if.then, label %if.end

if.then:                                          ; preds = %entry
  store i8 0, ptr %media_changed, align 4
  %sense_code_MEDIUM_CHANGED.coerce.0.copyload = load i24, ptr @sense_code_MEDIUM_CHANGED, align 1
  tail call void @scsi_device_set_ua(ptr noundef nonnull %dev, i24 %sense_code_MEDIUM_CHANGED.coerce.0.copyload) #18
  br label %if.end

if.end:                                           ; preds = %if.then, %entry
  ret void
}